; Function Attrs: nounwind uwtable
define nonnull ptr @l_Array_qsort_sort___at_Lean_Linter_constructorNameAsVariable___elambda__1___spec__15___lambda__1___boxed(ptr noundef %0, ptr noundef %1) #0 {
  %3 = getelementptr inbounds nuw i8, ptr %0, i64 8
  %4 = load ptr, ptr %3, align 8, !tbaa !4
  %5 = getelementptr inbounds nuw i8, ptr %4, i64 8
  %6 = load ptr, ptr %5, align 8, !tbaa !4
  %7 = getelementptr inbounds nuw i8, ptr %1, i64 8
  %8 = load ptr, ptr %7, align 8, !tbaa !4
  %9 = getelementptr inbounds nuw i8, ptr %8, i64 8
  %10 = load ptr, ptr %9, align 8, !tbaa !4
  %11 = ptrtoint ptr %6 to i64
  %12 = and i64 %11, 1
  %13 = icmp ne i64 %12, 0
  %14 = ptrtoint ptr %10 to i64
  %15 = and i64 %14, 1
  %16 = icmp ne i64 %15, 0
  %or.cond.i = select i1 %13, i1 %16, i1 false
  br i1 %or.cond.i, label %17, label %.critedge.i.i, !prof !19

17:                                               ; preds = %2
  %18 = icmp ult ptr %6, %10
  br label %l_Array_qsort_sort___at_Lean_Linter_constructorNameAsVariable___elambda__1___spec__15___lambda__1.exit

.critedge.i.i:                                    ; preds = %2
  %19 = tail call zeroext i1 @lean_nat_big_lt(ptr noundef %6, ptr noundef %10) #4
  br label %l_Array_qsort_sort___at_Lean_Linter_constructorNameAsVariable___elambda__1___spec__15___lambda__1.exit

l_Array_qsort_sort___at_Lean_Linter_constructorNameAsVariable___elambda__1___spec__15___lambda__1.exit: ; preds = %17, %.critedge.i.i
  %.0.i.i = phi i1 [ %18, %17 ], [ %19, %.critedge.i.i ]
  %20 = ptrtoint ptr %1 to i64
  %21 = and i64 %20, 1
  %.not = icmp eq i64 %21, 0
  br i1 %.not, label %22, label %lean_dec.exit5

22:                                               ; preds = %l_Array_qsort_sort___at_Lean_Linter_constructorNameAsVariable___elambda__1___spec__15___lambda__1.exit
  %23 = load i32, ptr %1, align 4, !tbaa !8
  %24 = icmp sgt i32 %23, 1
  br i1 %24, label %25, label %27, !prof !13

25:                                               ; preds = %22
  %26 = add nsw i32 %23, -1
  store i32 %26, ptr %1, align 4, !tbaa !8
  br label %lean_dec.exit5

27:                                               ; preds = %22
  %.not.i = icmp eq i32 %23, 0
  br i1 %.not.i, label %lean_dec.exit5, label %28

28:                                               ; preds = %27
  tail call void @lean_dec_ref_cold(ptr noundef nonnull %1) #4
  br label %lean_dec.exit5

lean_dec.exit5:                                   ; preds = %28, %27, %25, %l_Array_qsort_sort___at_Lean_Linter_constructorNameAsVariable___elambda__1___spec__15___lambda__1.exit
  %29 = ptrtoint ptr %0 to i64
  %30 = and i64 %29, 1
  %.not8 = icmp eq i64 %30, 0
  br i1 %.not8, label %31, label %lean_dec.exit

31:                                               ; preds = %lean_dec.exit5
  %32 = load i32, ptr %0, align 4, !tbaa !8
  %33 = icmp sgt i32 %32, 1
  br i1 %33, label %34, label %36, !prof !13

34:                                               ; preds = %31
  %35 = add nsw i32 %32, -1
  store i32 %35, ptr %0, align 4, !tbaa !8
  br label %lean_dec.exit

36:                                               ; preds = %31
  %.not.i6 = icmp eq i32 %32, 0
  br i1 %.not.i6, label %lean_dec.exit, label %37

37:                                               ; preds = %36
  tail call void @lean_dec_ref_cold(ptr noundef nonnull %0) #4
  br label %lean_dec.exit

lean_dec.exit:                                    ; preds = %37, %36, %34, %lean_dec.exit5
  %38 = select i1 %.0.i.i, ptr inttoptr (i64 3 to ptr), ptr inttoptr (i64 1 to ptr)
  ret ptr %38
}